; ModuleID = '56/1197.c'
source_filename = "56/1197.c"
target datalayout = "e-m:e-p270:32:32-p271:32:32-p272:64:64-i64:64-f80:128-n8:16:32:64-S128"
target triple = "x86_64-pc-linux-gnu"

@.str = private unnamed_addr constant [3 x i8] c"%d\00", align 1
@.str.1 = private unnamed_addr constant [3 x i8] c"%c\00", align 1

; Function Attrs: noinline nounwind uwtable
define dso_local void @main() #0 {
  %1 = alloca i32, align 4
  %2 = alloca i32, align 4
  %3 = alloca [10 x i8], align 1
  %4 = alloca i8*, align 8
  %5 = call i32 (i8*, ...) @__isoc99_scanf(i8* getelementptr inbounds ([3 x i8], [3 x i8]* @.str, i64 0, i64 0), i32* %2)
  %6 = getelementptr inbounds [10 x i8], [10 x i8]* %3, i64 0, i64 0
  %7 = load i32, i32* %2, align 4
  %8 = call i32 (i8*, i8*, ...) @sprintf(i8* %6, i8* getelementptr inbounds ([3 x i8], [3 x i8]* @.str, i64 0, i64 0), i32 %7) #4
  %9 = getelementptr inbounds [10 x i8], [10 x i8]* %3, i64 0, i64 0
  %10 = call i64 @strlen(i8* %9) #5
  %11 = trunc i64 %10 to i32
  store i32 %11, i32* %1, align 4
  %12 = getelementptr inbounds [10 x i8], [10 x i8]* %3, i64 0, i64 0
  store i8* %12, i8** %4, align 8
  %13 = getelementptr inbounds [10 x i8], [10 x i8]* %3, i64 0, i64 0
  %14 = load i32, i32* %1, align 4
  %15 = sext i32 %14 to i64
  %16 = getelementptr inbounds i8, i8* %13, i64 %15
  %17 = getelementptr inbounds i8, i8* %16, i64 -1
  store i8* %17, i8** %4, align 8
  br label %18

18:                                               ; preds = %27, %0
  %19 = load i8*, i8** %4, align 8
  %20 = getelementptr inbounds [10 x i8], [10 x i8]* %3, i64 0, i64 0
  %21 = icmp uge i8* %19, %20
  br i1 %21, label %22, label %30

22:                                               ; preds = %18
  %23 = load i8*, i8** %4, align 8
  %24 = load i8, i8* %23, align 1
  %25 = sext i8 %24 to i32
  %26 = call i32 (i8*, ...) @printf(i8* getelementptr inbounds ([3 x i8], [3 x i8]* @.str.1, i64 0, i64 0), i32 %25)
  br label %27

27:                                               ; preds = %22
  %28 = load i8*, i8** %4, align 8
  %29 = getelementptr inbounds i8, i8* %28, i32 -1
  store i8* %29, i8** %4, align 8
  br label %18

30:                                               ; preds = %18
  ret void
}

declare dso_local i32 @__isoc99_scanf(i8*, ...) #1

; Function Attrs: nounwind
declare dso_local i32 @sprintf(i8*, i8*, ...) #2

; Function Attrs: nounwind readonly
declare dso_local i64 @strlen(i8*) #3

declare dso_local i32 @printf(i8*, ...) #1


!llvm.module.flags = !{!0}
!llvm.ident = !{!1}

!0 = !{i32 1, !"wchar_size", i32 4}
!1 = !{!"clang version 10.0.0-4ubuntu1 "}
